target datalayout = "e-m:e-p270:32:32-p271:32:32-p272:64:64-i64:64-i128:128-f80:128-n8:16:32:64-S128"
target triple = "x86_64-pc-linux-gnu"

%struct.H5G_loc_t = type { ptr, ptr }
%struct.H5VL_loc_params_t = type { i32, i32, %union.anon }
%union.anon = type { %struct.H5VL_loc_by_idx }
%struct.H5VL_loc_by_idx = type { ptr, i32, i32, i64, i64 }

@.str = private unnamed_addr constant [112 x i8] c"generated/home/dtcxzyw/WorkSpace/Projects/compilers/llvm-opt-benchmark/bench/hdf5/hdf5/src/H5VLnative_dataset.c\00", align 1
@H5E_ARGS_g = external global i64, align 8
@H5E_BADTYPE_g = external global i64, align 8
@.str.1 = private unnamed_addr constant [26 x i8] c"not a file or file object\00", align 1
@H5E_DATASET_g = external global i64, align 8
@__func__.H5VL__native_dataset_open = private unnamed_addr constant [26 x i8] c"H5VL__native_dataset_open\00", align 1
@H5E_CANTOPENOBJ_g = external global i64, align 8
@.str.7 = private unnamed_addr constant [23 x i8] c"unable to open dataset\00", align 1

; Function Attrs: nounwind uwtable
define ptr @H5VL__native_dataset_open(ptr noundef %0, ptr noundef %1, ptr noundef %2, i64 noundef %3, i64 noundef %4, ptr noundef %5) #0 {
  %7 = alloca ptr, align 8
  %8 = alloca ptr, align 8
  %9 = alloca ptr, align 8
  %10 = alloca i64, align 8
  %11 = alloca i64, align 8
  %12 = alloca ptr, align 8
  %13 = alloca ptr, align 8
  %14 = alloca %struct.H5G_loc_t, align 8
  %15 = alloca ptr, align 8
  %16 = alloca i8, align 1
  store ptr %0, ptr %7, align 8, !tbaa !3
  store ptr %1, ptr %8, align 8, !tbaa !7
  store ptr %2, ptr %9, align 8, !tbaa !9
  store i64 %3, ptr %10, align 8, !tbaa !11
  store i64 %4, ptr %11, align 8, !tbaa !11
  store ptr %5, ptr %12, align 8, !tbaa !3
  call void @llvm.lifetime.start.p0(i64 8, ptr %13) #6
  store ptr null, ptr %13, align 8, !tbaa !13
  call void @llvm.lifetime.start.p0(i64 16, ptr %14) #6
  call void @llvm.lifetime.start.p0(i64 8, ptr %15) #6
  store ptr null, ptr %15, align 8, !tbaa !3
  call void @llvm.lifetime.start.p0(i64 1, ptr %16) #6
  store i8 0, ptr %16, align 1, !tbaa !15
  %17 = load ptr, ptr %7, align 8, !tbaa !3
  %18 = load ptr, ptr %8, align 8, !tbaa !7
  %19 = getelementptr inbounds nuw %struct.H5VL_loc_params_t, ptr %18, i32 0, i32 0
  %20 = load i32, ptr %19, align 8, !tbaa !17
  %21 = call i32 @H5G_loc_real(ptr noundef %17, i32 noundef %20, ptr noundef %14)
  %22 = icmp slt i32 %21, 0
  br i1 %22, label %23, label %42

23:                                               ; preds = %6
  br label %24

24:                                               ; preds = %23
  br label %25

25:                                               ; preds = %24
  br label %26

26:                                               ; preds = %25
  %27 = load i64, ptr @H5E_ARGS_g, align 8, !tbaa !11
  %28 = load i64, ptr @H5E_BADTYPE_g, align 8, !tbaa !11
  %29 = call i32 (ptr, ptr, i32, i64, i64, ptr, ...) @H5E_printf_stack(ptr noundef @.str, ptr noundef @__func__.H5VL__native_dataset_open, i32 noundef 328, i64 noundef %27, i64 noundef %28, ptr noundef @.str.1)
  br label %30

30:                                               ; preds = %26
  br label %31

31:                                               ; preds = %30
  store i8 1, ptr %16, align 1, !tbaa !15
  %32 = load i8, ptr %16, align 1, !tbaa !15, !range !20, !noundef !21
  %33 = trunc i8 %32 to i1
  %34 = zext i1 %33 to i8
  store i8 %34, ptr %16, align 1, !tbaa !15
  br label %35

35:                                               ; preds = %31
  br label %36

36:                                               ; preds = %35
  br label %37

37:                                               ; preds = %36
  store ptr null, ptr %15, align 8, !tbaa !3
  br label %68

38:                                               ; No predecessors!
  br label %39

39:                                               ; preds = %38
  br label %40

40:                                               ; preds = %39
  br label %41

41:                                               ; preds = %40
  br label %42

42:                                               ; preds = %41, %6
  %43 = load ptr, ptr %9, align 8, !tbaa !9
  %44 = load i64, ptr %10, align 8, !tbaa !11
  %45 = call ptr @H5D__open_name(ptr noundef %14, ptr noundef %43, i64 noundef %44)
  store ptr %45, ptr %13, align 8, !tbaa !13
  %46 = icmp eq ptr null, %45
  br i1 %46, label %47, label %66

47:                                               ; preds = %42
  br label %48

48:                                               ; preds = %47
  br label %49

49:                                               ; preds = %48
  br label %50

50:                                               ; preds = %49
  %51 = load i64, ptr @H5E_DATASET_g, align 8, !tbaa !11
  %52 = load i64, ptr @H5E_CANTOPENOBJ_g, align 8, !tbaa !11
  %53 = call i32 (ptr, ptr, i32, i64, i64, ptr, ...) @H5E_printf_stack(ptr noundef @.str, ptr noundef @__func__.H5VL__native_dataset_open, i32 noundef 332, i64 noundef %51, i64 noundef %52, ptr noundef @.str.7)
  br label %54

54:                                               ; preds = %50
  br label %55

55:                                               ; preds = %54
  store i8 1, ptr %16, align 1, !tbaa !15
  %56 = load i8, ptr %16, align 1, !tbaa !15, !range !20, !noundef !21
  %57 = trunc i8 %56 to i1
  %58 = zext i1 %57 to i8
  store i8 %58, ptr %16, align 1, !tbaa !15
  br label %59

59:                                               ; preds = %55
  br label %60

60:                                               ; preds = %59
  br label %61

61:                                               ; preds = %60
  store ptr null, ptr %15, align 8, !tbaa !3
  br label %68

62:                                               ; No predecessors!
  br label %63

63:                                               ; preds = %62
  br label %64

64:                                               ; preds = %63
  br label %65

65:                                               ; preds = %64
  br label %66

66:                                               ; preds = %65, %42
  %67 = load ptr, ptr %13, align 8, !tbaa !13
  store ptr %67, ptr %15, align 8, !tbaa !3
  br label %68

68:                                               ; preds = %66, %61, %37
  %69 = load ptr, ptr %15, align 8, !tbaa !3
  call void @llvm.lifetime.end.p0(i64 1, ptr %16) #6
  call void @llvm.lifetime.end.p0(i64 8, ptr %15) #6
  call void @llvm.lifetime.end.p0(i64 16, ptr %14) #6
  call void @llvm.lifetime.end.p0(i64 8, ptr %13) #6
  ret ptr %69
}